(dp0
S'\xe8\x82\xaf\xe5\xae\x9a'
p1
(dp2
S'freq'
p3
I608
sS'id'
p4
I6
ssV\u5426\u5b9a
p5
(dp6
g3
I0
sg4
I2
ssS'\xe7\x96\x91\xe9\x97\xae'
p7
(dp8
g3
I623
sg4
I5
ssV\u80af\u5b9a
p9
(dp10
g3
I0
sg4
I1
ssS'\xe5\x90\xa6\xe5\xae\x9a'
p11
(dp12
g3
I625
sg4
I4
ssV\u7591\u95ee
p13
(dp14
g3
I0
sg4
I3
ss.